; Function Attrs: nounwind uwtable
define void @Abc_BufPrintOne(ptr noundef readonly captures(none) %0, i32 noundef %1) local_unnamed_addr #2 {
  %3 = getelementptr inbounds nuw i8, ptr %0, i64 16
  %4 = load ptr, ptr %3, align 8, !tbaa !87
  %5 = getelementptr i8, ptr %4, i64 32
  %.val20 = load ptr, ptr %5, align 8, !tbaa !3
  %6 = getelementptr i8, ptr %.val20, i64 8
  %.val20.val = load ptr, ptr %6, align 8, !tbaa !26
  %7 = sext i32 %1 to i64
  %8 = getelementptr inbounds ptr, ptr %.val20.val, i64 %7
  %9 = load ptr, ptr %8, align 8, !tbaa !27
  %10 = tail call ptr @Abc_BufSortByDelay(ptr noundef %0, i32 noundef %1)
  %11 = getelementptr i8, ptr %9, i64 28
  %.val21 = load i32, ptr %11, align 4, !tbaa !28
  %12 = getelementptr i8, ptr %9, i64 44
  %.val25 = load i32, ptr %12, align 4, !tbaa !60
  %13 = getelementptr i8, ptr %9, i64 20
  %.val26 = load i32, ptr %13, align 4
  %14 = lshr i32 %.val26, 12
  %15 = tail call i32 (ptr, ...) @printf(ptr noundef nonnull dereferenceable(1) @.str.16, i32 noundef %1, i32 noundef %.val21, i32 noundef %.val25, i32 noundef %14)
  %16 = getelementptr i8, ptr %10, i64 4
  %.val2431 = load i32, ptr %16, align 4, !tbaa !50
  %17 = icmp sgt i32 %.val2431, 0
  br i1 %17, label %.lr.ph, label %.critedge

.lr.ph:                                           ; preds = %2
  %18 = getelementptr i8, ptr %10, i64 8
  %19 = getelementptr inbounds nuw i8, ptr %0, i64 80
  %20 = getelementptr i8, ptr %0, i64 40
  %21 = getelementptr i8, ptr %9, i64 16
  %22 = getelementptr i8, ptr %0, i64 48
  %23 = getelementptr i8, ptr %0, i64 24
  %24 = getelementptr i8, ptr %0, i64 32
  br label %25

25:                                               ; preds = %.lr.ph, %60
  %.val2434 = phi i32 [ %.val2431, %.lr.ph ], [ %.val24, %60 ]
  %indvars.iv = phi i64 [ 0, %.lr.ph ], [ %indvars.iv.next, %60 ]
  %26 = load ptr, ptr %3, align 8, !tbaa !87
  %.val23 = load ptr, ptr %18, align 8, !tbaa !45
  %27 = getelementptr inbounds nuw i32, ptr %.val23, i64 %indvars.iv
  %28 = load i32, ptr %27, align 4, !tbaa !33
  %29 = getelementptr i8, ptr %26, i64 32
  %.val = load ptr, ptr %29, align 8, !tbaa !3
  %30 = getelementptr i8, ptr %.val, i64 8
  %.val.val = load ptr, ptr %30, align 8, !tbaa !26
  %31 = sext i32 %28 to i64
  %32 = getelementptr inbounds ptr, ptr %.val.val, i64 %31
  %33 = load ptr, ptr %32, align 8, !tbaa !27
  %34 = icmp eq ptr %33, null
  br i1 %34, label %60, label %35

35:                                               ; preds = %25
  %36 = load i32, ptr %19, align 8, !tbaa !86
  %.val.i = load ptr, ptr %20, align 8, !tbaa !81
  %.val9.i = load i32, ptr %21, align 8, !tbaa !34
  %37 = getelementptr i8, ptr %.val.i, i64 8
  %.val.val.i = load ptr, ptr %37, align 8, !tbaa !45
  %38 = sext i32 %.val9.i to i64
  %39 = getelementptr inbounds i32, ptr %.val.val.i, i64 %38
  %40 = load i32, ptr %39, align 4, !tbaa !33
  %.val13.i = load ptr, ptr %22, align 8, !tbaa !84
  %41 = getelementptr i8, ptr %33, i64 16
  %.val14.i = load i32, ptr %41, align 8, !tbaa !34
  %42 = getelementptr i8, ptr %.val13.i, i64 8
  %.val13.val.i = load ptr, ptr %42, align 8, !tbaa !45
  %43 = sext i32 %.val14.i to i64
  %44 = getelementptr inbounds i32, ptr %.val13.val.i, i64 %43
  %45 = load i32, ptr %44, align 4, !tbaa !33
  %46 = tail call i32 @Abc_NodeFindFanin(ptr noundef nonnull %33, ptr noundef %9) #17
  %.val10.i = load ptr, ptr %23, align 8, !tbaa !77
  %.val11.i = load ptr, ptr %24, align 8, !tbaa !82
  %.val12.i = load i32, ptr %41, align 8, !tbaa !34
  %47 = getelementptr i8, ptr %.val10.i, i64 8
  %.val10.val.i = load ptr, ptr %47, align 8, !tbaa !45
  %48 = getelementptr i8, ptr %.val11.i, i64 8
  %.val11.val.i = load ptr, ptr %48, align 8, !tbaa !45
  %49 = sext i32 %.val12.i to i64
  %50 = getelementptr inbounds i32, ptr %.val10.val.i, i64 %49
  %51 = load i32, ptr %50, align 4, !tbaa !33
  %52 = add nsw i32 %51, %46
  %53 = sext i32 %52 to i64
  %54 = getelementptr inbounds i32, ptr %.val11.val.i, i64 %53
  %55 = load i32, ptr %54, align 4, !tbaa !33
  %56 = add i32 %40, %45
  %57 = add i32 %56, %55
  %58 = sub i32 %36, %57
  %59 = tail call i32 (ptr, ...) @printf(ptr noundef nonnull dereferenceable(1) @.str.17, i32 noundef %.val12.i, i32 noundef %58)
  %.val24.pre = load i32, ptr %16, align 4, !tbaa !50
  br label %60

60:                                               ; preds = %35, %25
  %.val24 = phi i32 [ %.val24.pre, %35 ], [ %.val2434, %25 ]
  %indvars.iv.next = add nuw nsw i64 %indvars.iv, 1
  %61 = sext i32 %.val24 to i64
  %62 = icmp slt i64 %indvars.iv.next, %61
  br i1 %62, label %25, label %.critedge, !llvm.loop !139

.critedge:                                        ; preds = %60, %2
  %puts = tail call i32 @puts(ptr nonnull dereferenceable(1) @str.3)
  ret void
}